; ModuleID = '41/587.c'
source_filename = "41/587.c"
target datalayout = "e-m:e-p270:32:32-p271:32:32-p272:64:64-i64:64-f80:128-n8:16:32:64-S128"
target triple = "x86_64-pc-linux-gnu"

@.str = private unnamed_addr constant [16 x i8] c"%d %d %d %d %d\0A\00", align 1

; Function Attrs: noinline nounwind uwtable
define dso_local i32 @main() #0 {
  %1 = alloca i32, align 4
  %2 = alloca i32, align 4
  %3 = alloca i32, align 4
  %4 = alloca i32, align 4
  %5 = alloca i32, align 4
  %6 = alloca i32, align 4
  %7 = alloca [6 x i32], align 16
  store i32 0, i32* %1, align 4
  store i32 1, i32* %2, align 4
  br label %8

8:                                                ; preds = %135, %0
  %9 = load i32, i32* %2, align 4
  %10 = icmp sle i32 %9, 5
  br i1 %10, label %11, label %138

11:                                               ; preds = %8
  store i32 1, i32* %3, align 4
  br label %12

12:                                               ; preds = %131, %11
  %13 = load i32, i32* %3, align 4
  %14 = icmp sle i32 %13, 5
  br i1 %14, label %15, label %134

15:                                               ; preds = %12
  %16 = load i32, i32* %2, align 4
  %17 = load i32, i32* %3, align 4
  %18 = icmp eq i32 %16, %17
  br i1 %18, label %19, label %20

19:                                               ; preds = %15
  br label %131

20:                                               ; preds = %15
  store i32 1, i32* %4, align 4
  br label %21

21:                                               ; preds = %127, %20
  %22 = load i32, i32* %4, align 4
  %23 = icmp sle i32 %22, 5
  br i1 %23, label %24, label %130

24:                                               ; preds = %21
  %25 = load i32, i32* %2, align 4
  %26 = load i32, i32* %4, align 4
  %27 = icmp eq i32 %25, %26
  br i1 %27, label %32, label %28

28:                                               ; preds = %24
  %29 = load i32, i32* %3, align 4
  %30 = load i32, i32* %4, align 4
  %31 = icmp eq i32 %29, %30
  br i1 %31, label %32, label %33

32:                                               ; preds = %28, %24
  br label %127

33:                                               ; preds = %28
  store i32 1, i32* %5, align 4
  br label %34

34:                                               ; preds = %123, %33
  %35 = load i32, i32* %5, align 4
  %36 = icmp sle i32 %35, 5
  br i1 %36, label %37, label %126

37:                                               ; preds = %34
  %38 = load i32, i32* %2, align 4
  %39 = load i32, i32* %5, align 4
  %40 = icmp eq i32 %38, %39
  br i1 %40, label %49, label %41

41:                                               ; preds = %37
  %42 = load i32, i32* %3, align 4
  %43 = load i32, i32* %5, align 4
  %44 = icmp eq i32 %42, %43
  br i1 %44, label %49, label %45

45:                                               ; preds = %41
  %46 = load i32, i32* %4, align 4
  %47 = load i32, i32* %5, align 4
  %48 = icmp eq i32 %46, %47
  br i1 %48, label %49, label %50

49:                                               ; preds = %45, %41, %37
  br label %123

50:                                               ; preds = %45
  %51 = load i32, i32* %2, align 4
  %52 = sub nsw i32 15, %51
  %53 = load i32, i32* %3, align 4
  %54 = sub nsw i32 %52, %53
  %55 = load i32, i32* %4, align 4
  %56 = sub nsw i32 %54, %55
  %57 = load i32, i32* %5, align 4
  %58 = sub nsw i32 %56, %57
  store i32 %58, i32* %6, align 4
  %59 = load i32, i32* %6, align 4
  %60 = icmp eq i32 %59, 2
  br i1 %60, label %64, label %61

61:                                               ; preds = %50
  %62 = load i32, i32* %6, align 4
  %63 = icmp eq i32 %62, 3
  br i1 %63, label %64, label %65

64:                                               ; preds = %61, %50
  br label %123

65:                                               ; preds = %61
  %66 = load i32, i32* %6, align 4
  %67 = icmp eq i32 %66, 1
  %68 = zext i1 %67 to i32
  %69 = load i32, i32* %2, align 4
  %70 = sext i32 %69 to i64
  %71 = getelementptr inbounds [6 x i32], [6 x i32]* %7, i64 0, i64 %70
  store i32 %68, i32* %71, align 4
  %72 = load i32, i32* %3, align 4
  %73 = icmp eq i32 %72, 2
  %74 = zext i1 %73 to i32
  %75 = load i32, i32* %3, align 4
  %76 = sext i32 %75 to i64
  %77 = getelementptr inbounds [6 x i32], [6 x i32]* %7, i64 0, i64 %76
  store i32 %74, i32* %77, align 4
  %78 = load i32, i32* %2, align 4
  %79 = icmp eq i32 %78, 5
  %80 = zext i1 %79 to i32
  %81 = load i32, i32* %4, align 4
  %82 = sext i32 %81 to i64
  %83 = getelementptr inbounds [6 x i32], [6 x i32]* %7, i64 0, i64 %82
  store i32 %80, i32* %83, align 4
  %84 = load i32, i32* %4, align 4
  %85 = icmp ne i32 %84, 1
  %86 = zext i1 %85 to i32
  %87 = load i32, i32* %5, align 4
  %88 = sext i32 %87 to i64
  %89 = getelementptr inbounds [6 x i32], [6 x i32]* %7, i64 0, i64 %88
  store i32 %86, i32* %89, align 4
  %90 = load i32, i32* %5, align 4
  %91 = icmp eq i32 %90, 1
  %92 = zext i1 %91 to i32
  %93 = load i32, i32* %6, align 4
  %94 = sext i32 %93 to i64
  %95 = getelementptr inbounds [6 x i32], [6 x i32]* %7, i64 0, i64 %94
  store i32 %92, i32* %95, align 4
  %96 = getelementptr inbounds [6 x i32], [6 x i32]* %7, i64 0, i64 1
  %97 = load i32, i32* %96, align 4
  %98 = icmp ne i32 %97, 0
  br i1 %98, label %99, label %122

99:                                               ; preds = %65
  %100 = getelementptr inbounds [6 x i32], [6 x i32]* %7, i64 0, i64 2
  %101 = load i32, i32* %100, align 8
  %102 = icmp ne i32 %101, 0
  br i1 %102, label %103, label %122

103:                                              ; preds = %99
  %104 = getelementptr inbounds [6 x i32], [6 x i32]* %7, i64 0, i64 3
  %105 = load i32, i32* %104, align 4
  %106 = icmp ne i32 %105, 0
  br i1 %106, label %122, label %107

107:                                              ; preds = %103
  %108 = getelementptr inbounds [6 x i32], [6 x i32]* %7, i64 0, i64 4
  %109 = load i32, i32* %108, align 16
  %110 = icmp ne i32 %109, 0
  br i1 %110, label %122, label %111

111:                                              ; preds = %107
  %112 = getelementptr inbounds [6 x i32], [6 x i32]* %7, i64 0, i64 5
  %113 = load i32, i32* %112, align 4
  %114 = icmp ne i32 %113, 0
  br i1 %114, label %122, label %115

115:                                              ; preds = %111
  %116 = load i32, i32* %2, align 4
  %117 = load i32, i32* %3, align 4
  %118 = load i32, i32* %4, align 4
  %119 = load i32, i32* %5, align 4
  %120 = load i32, i32* %6, align 4
  %121 = call i32 (i8*, ...) @printf(i8* getelementptr inbounds ([16 x i8], [16 x i8]* @.str, i64 0, i64 0), i32 %116, i32 %117, i32 %118, i32 %119, i32 %120)
  br label %126

122:                                              ; preds = %111, %107, %103, %99, %65
  br label %123

123:                                              ; preds = %122, %64, %49
  %124 = load i32, i32* %5, align 4
  %125 = add nsw i32 %124, 1
  store i32 %125, i32* %5, align 4
  br label %34

126:                                              ; preds = %115, %34
  br label %127

127:                                              ; preds = %126, %32
  %128 = load i32, i32* %4, align 4
  %129 = add nsw i32 %128, 1
  store i32 %129, i32* %4, align 4
  br label %21

130:                                              ; preds = %21
  br label %131

131:                                              ; preds = %130, %19
  %132 = load i32, i32* %3, align 4
  %133 = add nsw i32 %132, 1
  store i32 %133, i32* %3, align 4
  br label %12

134:                                              ; preds = %12
  br label %135

135:                                              ; preds = %134
  %136 = load i32, i32* %2, align 4
  %137 = add nsw i32 %136, 1
  store i32 %137, i32* %2, align 4
  br label %8

138:                                              ; preds = %8
  ret i32 0
}

declare dso_local i32 @printf(i8*, ...) #1


!llvm.module.flags = !{!0}
!llvm.ident = !{!1}

!0 = !{i32 1, !"wchar_size", i32 4}
!1 = !{!"clang version 10.0.0-4ubuntu1 "}
